; Function Attrs: mustprogress uwtable
define internal void @_ZN6duckdbL12HashFunctionERNS_9DataChunkERNS_15ExpressionStateERNS_6VectorE(ptr noundef nonnull align 8 dereferenceable(64) %0, ptr nonnull readnone align 8 captures(none) %1, ptr noundef nonnull align 8 dereferenceable(104) %2) #0 {
  tail call void @_ZN6duckdb9DataChunk4HashERNS_6VectorE(ptr noundef nonnull align 8 dereferenceable(64) %0, ptr noundef nonnull align 8 dereferenceable(104) %2)
  %4 = tail call noundef zeroext i1 @_ZNK6duckdb9DataChunk11AllConstantEv(ptr noundef nonnull align 8 dereferenceable(64) %0)
  br i1 %4, label %5, label %6

5:                                                ; preds = %3
  tail call void @_ZN6duckdb6Vector13SetVectorTypeENS_10VectorTypeE(ptr noundef nonnull align 8 dereferenceable(104) %2, i8 noundef zeroext 2)
  br label %6

6:                                                ; preds = %5, %3
  ret void
}